; Function Attrs: nofree nosync nounwind memory(read, inaccessiblemem: none) uwtable
define ptr @Ivy_ObjReal(ptr noundef %0) local_unnamed_addr #9 {
  %2 = icmp eq ptr %0, null
  br i1 %2, label %common.ret9, label %3

3:                                                ; preds = %1
  %4 = ptrtoint ptr %0 to i64
  %5 = and i64 %4, -2
  %6 = inttoptr i64 %5 to ptr
  %7 = getelementptr i8, ptr %6, i64 8
  %.val = load i32, ptr %7, align 8
  %8 = and i32 %.val, 15
  %.not = icmp eq i32 %8, 7
  br i1 %.not, label %9, label %common.ret9

common.ret9:                                      ; preds = %1, %3, %9
  %common.ret9.op = phi ptr [ %15, %9 ], [ %0, %3 ], [ null, %1 ]
  ret ptr %common.ret9.op

9:                                                ; preds = %3
  %10 = getelementptr i8, ptr %6, i64 16
  %.val8 = load ptr, ptr %10, align 8
  %11 = tail call ptr @Ivy_ObjReal(ptr noundef %.val8)
  %12 = and i64 %4, 1
  %13 = ptrtoint ptr %11 to i64
  %14 = xor i64 %12, %13
  %15 = inttoptr i64 %14 to ptr
  br label %common.ret9
}